target datalayout = "e-m:e-p270:32:32-p271:32:32-p272:64:64-i64:64-i128:128-f80:128-n8:16:32:64-S128"
target triple = "x86_64-pc-linux-gnu"

%"class.cv::detail::tracking::contrib_feature::CvParams" = type { ptr, %"class.std::__cxx11::basic_string" }
%"class.std::__cxx11::basic_string" = type { %"struct.std::__cxx11::basic_string<char>::_Alloc_hider", i64, %union.anon }
%"struct.std::__cxx11::basic_string<char>::_Alloc_hider" = type { ptr }
%union.anon = type { i64, [8 x i8] }
%"class.cv::detail::tracking::contrib_feature::CvFeatureParams" = type <{ %"class.cv::detail::tracking::contrib_feature::CvParams", i32, i32, i32, [4 x i8] }>
%"class.cv::FileNode" = type { ptr, i64, i64 }

@.str.3 = private unnamed_addr constant [12 x i8] c"maxCatCount\00", align 1
@.str.4 = private unnamed_addr constant [9 x i8] c"featSize\00", align 1
@.str.5 = private unnamed_addr constant [8 x i8] c"numFeat\00", align 1

; Function Attrs: mustprogress uwtable
define hidden noundef zeroext i1 @_ZN2cv6detail8tracking15contrib_feature15CvFeatureParams4readERKNS_8FileNodeE(ptr noundef nonnull align 8 dereferenceable(52) %0, ptr noundef nonnull align 8 dereferenceable(24) %1) unnamed_addr #4 align 2 {
  %3 = alloca i1, align 1
  %4 = alloca ptr, align 8
  %5 = alloca ptr, align 8
  %6 = alloca %"class.cv::FileNode", align 8
  %7 = alloca %"class.cv::FileNode", align 8
  %8 = alloca %"class.cv::FileNode", align 8
  store ptr %0, ptr %4, align 8, !tbaa !19
  store ptr %1, ptr %5, align 8, !tbaa !43
  %9 = load ptr, ptr %4, align 8
  %10 = load ptr, ptr %5, align 8, !tbaa !43
  %11 = call noundef zeroext i1 @_ZNK2cv8FileNode5emptyEv(ptr noundef nonnull align 8 dereferenceable(24) %10)
  br i1 %11, label %12, label %13

12:                                               ; preds = %2
  store i1 false, ptr %3, align 1
  br label %32

13:                                               ; preds = %2
  call void @llvm.lifetime.start.p0(i64 24, ptr %6) #3
  %14 = load ptr, ptr %5, align 8, !tbaa !43
  call void @_ZNK2cv8FileNodeixEPKc(ptr dead_on_unwind writable sret(%"class.cv::FileNode") align 8 %6, ptr noundef nonnull align 8 dereferenceable(24) %14, ptr noundef @.str.3)
  %15 = call noundef i32 @_ZNK2cv8FileNodecviEv(ptr noundef nonnull align 8 dereferenceable(24) %6)
  %16 = getelementptr inbounds nuw %"class.cv::detail::tracking::contrib_feature::CvFeatureParams", ptr %9, i32 0, i32 1
  store i32 %15, ptr %16, align 8, !tbaa !21
  call void @llvm.lifetime.end.p0(i64 24, ptr %6) #3
  call void @llvm.lifetime.start.p0(i64 24, ptr %7) #3
  %17 = load ptr, ptr %5, align 8, !tbaa !43
  call void @_ZNK2cv8FileNodeixEPKc(ptr dead_on_unwind writable sret(%"class.cv::FileNode") align 8 %7, ptr noundef nonnull align 8 dereferenceable(24) %17, ptr noundef @.str.4)
  %18 = call noundef i32 @_ZNK2cv8FileNodecviEv(ptr noundef nonnull align 8 dereferenceable(24) %7)
  %19 = getelementptr inbounds nuw %"class.cv::detail::tracking::contrib_feature::CvFeatureParams", ptr %9, i32 0, i32 2
  store i32 %18, ptr %19, align 4, !tbaa !28
  call void @llvm.lifetime.end.p0(i64 24, ptr %7) #3
  call void @llvm.lifetime.start.p0(i64 24, ptr %8) #3
  %20 = load ptr, ptr %5, align 8, !tbaa !43
  call void @_ZNK2cv8FileNodeixEPKc(ptr dead_on_unwind writable sret(%"class.cv::FileNode") align 8 %8, ptr noundef nonnull align 8 dereferenceable(24) %20, ptr noundef @.str.5)
  %21 = call noundef i32 @_ZNK2cv8FileNodecviEv(ptr noundef nonnull align 8 dereferenceable(24) %8)
  %22 = getelementptr inbounds nuw %"class.cv::detail::tracking::contrib_feature::CvFeatureParams", ptr %9, i32 0, i32 3
  store i32 %21, ptr %22, align 8, !tbaa !29
  call void @llvm.lifetime.end.p0(i64 24, ptr %8) #3
  %23 = getelementptr inbounds nuw %"class.cv::detail::tracking::contrib_feature::CvFeatureParams", ptr %9, i32 0, i32 1
  %24 = load i32, ptr %23, align 8, !tbaa !21
  %25 = icmp sge i32 %24, 0
  br i1 %25, label %26, label %30

26:                                               ; preds = %13
  %27 = getelementptr inbounds nuw %"class.cv::detail::tracking::contrib_feature::CvFeatureParams", ptr %9, i32 0, i32 2
  %28 = load i32, ptr %27, align 4, !tbaa !28
  %29 = icmp sge i32 %28, 1
  br label %30

30:                                               ; preds = %26, %13
  %31 = phi i1 [ false, %13 ], [ %29, %26 ]
  store i1 %31, ptr %3, align 1
  br label %32

32:                                               ; preds = %30, %12
  %33 = load i1, ptr %3, align 1
  ret i1 %33
}