; Function Attrs: mustprogress uwtable
define hidden noundef zeroext i1 @_ZN2cv6detail8tracking15contrib_feature15CvFeatureParams4readERKNS_8FileNodeE(ptr noundef nonnull align 8 captures(none) dereferenceable(52) %0, ptr noundef nonnull align 8 dereferenceable(24) %1) unnamed_addr #5 align 2 {
  %3 = alloca %"class.cv::FileNode", align 8
  %4 = alloca %"class.cv::FileNode", align 8
  %5 = alloca %"class.cv::FileNode", align 8
  %6 = tail call noundef zeroext i1 @_ZNK2cv8FileNode5emptyEv(ptr noundef nonnull align 8 dereferenceable(24) %1)
  br i1 %6, label %19, label %7

7:                                                ; preds = %2
  call void @llvm.lifetime.start.p0(i64 24, ptr nonnull %3) #31
  call void @_ZNK2cv8FileNodeixEPKc(ptr dead_on_unwind nonnull writable sret(%"class.cv::FileNode") align 8 %3, ptr noundef nonnull align 8 dereferenceable(24) %1, ptr noundef nonnull @.str.3)
  %8 = call noundef i32 @_ZNK2cv8FileNodecviEv(ptr noundef nonnull align 8 dereferenceable(24) %3)
  %9 = getelementptr inbounds nuw i8, ptr %0, i64 40
  store i32 %8, ptr %9, align 8, !tbaa !39
  call void @llvm.lifetime.end.p0(i64 24, ptr nonnull %3) #31
  call void @llvm.lifetime.start.p0(i64 24, ptr nonnull %4) #31
  call void @_ZNK2cv8FileNodeixEPKc(ptr dead_on_unwind nonnull writable sret(%"class.cv::FileNode") align 8 %4, ptr noundef nonnull align 8 dereferenceable(24) %1, ptr noundef nonnull @.str.4)
  %10 = call noundef i32 @_ZNK2cv8FileNodecviEv(ptr noundef nonnull align 8 dereferenceable(24) %4)
  %11 = getelementptr inbounds nuw i8, ptr %0, i64 44
  store i32 %10, ptr %11, align 4, !tbaa !42
  call void @llvm.lifetime.end.p0(i64 24, ptr nonnull %4) #31
  call void @llvm.lifetime.start.p0(i64 24, ptr nonnull %5) #31
  call void @_ZNK2cv8FileNodeixEPKc(ptr dead_on_unwind nonnull writable sret(%"class.cv::FileNode") align 8 %5, ptr noundef nonnull align 8 dereferenceable(24) %1, ptr noundef nonnull @.str.5)
  %12 = call noundef i32 @_ZNK2cv8FileNodecviEv(ptr noundef nonnull align 8 dereferenceable(24) %5)
  %13 = getelementptr inbounds nuw i8, ptr %0, i64 48
  store i32 %12, ptr %13, align 8, !tbaa !43
  call void @llvm.lifetime.end.p0(i64 24, ptr nonnull %5) #31
  %14 = load i32, ptr %9, align 8, !tbaa !39
  %15 = icmp sgt i32 %14, -1
  %16 = load i32, ptr %11, align 4
  %17 = icmp sgt i32 %16, 0
  %18 = select i1 %15, i1 %17, i1 false
  br label %19

19:                                               ; preds = %2, %7
  %.0 = phi i1 [ %18, %7 ], [ false, %2 ]
  ret i1 %.0
}